; Function Attrs: mustprogress nounwind uwtable
define hidden void @_ZN13MemoryService25add_code_heap_memory_poolEP8CodeHeapPKc(ptr noundef %0, ptr noundef %1) local_unnamed_addr #2 align 2 {
  %3 = tail call noundef ptr @_Z12AllocateHeapm8MEMFLAGSN17AllocFailStrategy13AllocFailEnumE(i64 noundef 216, i8 noundef zeroext 9, i32 noundef 0) #8
  tail call void @_ZN12CodeHeapPoolC1EP8CodeHeapPKcb(ptr noundef nonnull align 8 dereferenceable(216) %3, ptr noundef %0, ptr noundef %1, i1 noundef zeroext true) #8
  %4 = load ptr, ptr @_ZN13MemoryService16_code_heap_poolsE, align 8
  %5 = load i32, ptr %4, align 8
  %6 = getelementptr inbounds i8, ptr %4, i64 4
  %7 = load i32, ptr %6, align 4
  %8 = icmp eq i32 %5, %7
  br i1 %8, label %9, label %_ZN26GrowableArrayWithAllocatorIP10MemoryPool13GrowableArrayIS1_EE6appendERKS1_.exit

9:                                                ; preds = %2
  %10 = add nsw i32 %5, 1
  %11 = icmp sgt i32 %5, -1
  %12 = xor i32 %5, -2147483648
  %13 = and i32 %12, %10
  %14 = icmp eq i32 %13, 0
  %15 = and i1 %11, %14
  %16 = tail call range(i32 0, 33) i32 @llvm.ctlz.i32(i32 %10, i1 true)
  %17 = sub nuw nsw i32 32, %16
  %18 = shl nuw i32 1, %17
  %.0.i.i.i.i = select i1 %15, i32 %10, i32 %18
  tail call void @_ZN26GrowableArrayWithAllocatorIP10MemoryPool13GrowableArrayIS1_EE9expand_toEi(ptr noundef nonnull align 8 dereferenceable(16) %4, i32 noundef %.0.i.i.i.i)
  %.pre.i = load i32, ptr %4, align 8
  br label %_ZN26GrowableArrayWithAllocatorIP10MemoryPool13GrowableArrayIS1_EE6appendERKS1_.exit

_ZN26GrowableArrayWithAllocatorIP10MemoryPool13GrowableArrayIS1_EE6appendERKS1_.exit: ; preds = %2, %9
  %19 = phi i32 [ %.pre.i, %9 ], [ %5, %2 ]
  %20 = add nsw i32 %19, 1
  store i32 %20, ptr %4, align 8
  %21 = getelementptr inbounds i8, ptr %4, i64 8
  %22 = load ptr, ptr %21, align 8
  %23 = sext i32 %19 to i64
  %24 = getelementptr inbounds ptr, ptr %22, i64 %23
  store ptr %3, ptr %24, align 8
  %25 = load ptr, ptr @_ZN13MemoryService11_pools_listE, align 8
  %26 = load i32, ptr %25, align 8
  %27 = getelementptr inbounds i8, ptr %25, i64 4
  %28 = load i32, ptr %27, align 4
  %29 = icmp eq i32 %26, %28
  br i1 %29, label %30, label %_ZN26GrowableArrayWithAllocatorIP10MemoryPool13GrowableArrayIS1_EE6appendERKS1_.exit6

30:                                               ; preds = %_ZN26GrowableArrayWithAllocatorIP10MemoryPool13GrowableArrayIS1_EE6appendERKS1_.exit
  %31 = add nsw i32 %26, 1
  %32 = icmp sgt i32 %26, -1
  %33 = xor i32 %26, -2147483648
  %34 = and i32 %33, %31
  %35 = icmp eq i32 %34, 0
  %36 = and i1 %32, %35
  %37 = tail call range(i32 0, 33) i32 @llvm.ctlz.i32(i32 %31, i1 true)
  %38 = sub nuw nsw i32 32, %37
  %39 = shl nuw i32 1, %38
  %.0.i.i.i.i4 = select i1 %36, i32 %31, i32 %39
  tail call void @_ZN26GrowableArrayWithAllocatorIP10MemoryPool13GrowableArrayIS1_EE9expand_toEi(ptr noundef nonnull align 8 dereferenceable(16) %25, i32 noundef %.0.i.i.i.i4)
  %.pre.i5 = load i32, ptr %25, align 8
  br label %_ZN26GrowableArrayWithAllocatorIP10MemoryPool13GrowableArrayIS1_EE6appendERKS1_.exit6

_ZN26GrowableArrayWithAllocatorIP10MemoryPool13GrowableArrayIS1_EE6appendERKS1_.exit6: ; preds = %_ZN26GrowableArrayWithAllocatorIP10MemoryPool13GrowableArrayIS1_EE6appendERKS1_.exit, %30
  %40 = phi i32 [ %.pre.i5, %30 ], [ %26, %_ZN26GrowableArrayWithAllocatorIP10MemoryPool13GrowableArrayIS1_EE6appendERKS1_.exit ]
  %41 = add nsw i32 %40, 1
  store i32 %41, ptr %25, align 8
  %42 = getelementptr inbounds i8, ptr %25, i64 8
  %43 = load ptr, ptr %42, align 8
  %44 = sext i32 %40 to i64
  %45 = getelementptr inbounds ptr, ptr %43, i64 %44
  store ptr %3, ptr %45, align 8
  %46 = load ptr, ptr @_ZN13MemoryService19_code_cache_managerE, align 8
  %47 = icmp eq ptr %46, null
  br i1 %47, label %48, label %72

48:                                               ; preds = %_ZN26GrowableArrayWithAllocatorIP10MemoryPool13GrowableArrayIS1_EE6appendERKS1_.exit6
  %49 = tail call noundef ptr @_ZN13MemoryManager29get_code_cache_memory_managerEv() #8
  store ptr %49, ptr @_ZN13MemoryService19_code_cache_managerE, align 8
  %50 = load ptr, ptr @_ZN13MemoryService14_managers_listE, align 8
  %51 = load i32, ptr %50, align 8
  %52 = getelementptr inbounds i8, ptr %50, i64 4
  %53 = load i32, ptr %52, align 4
  %54 = icmp eq i32 %51, %53
  br i1 %54, label %55, label %_ZN26GrowableArrayWithAllocatorIP13MemoryManager13GrowableArrayIS1_EE6appendERKS1_.exit

55:                                               ; preds = %48
  %56 = add nsw i32 %51, 1
  %57 = icmp sgt i32 %51, -1
  %58 = xor i32 %51, -2147483648
  %59 = and i32 %58, %56
  %60 = icmp eq i32 %59, 0
  %61 = and i1 %57, %60
  %62 = tail call range(i32 0, 33) i32 @llvm.ctlz.i32(i32 %56, i1 true)
  %63 = sub nuw nsw i32 32, %62
  %64 = shl nuw i32 1, %63
  %.0.i.i.i.i7 = select i1 %61, i32 %56, i32 %64
  tail call void @_ZN26GrowableArrayWithAllocatorIP13MemoryManager13GrowableArrayIS1_EE9expand_toEi(ptr noundef nonnull align 8 dereferenceable(16) %50, i32 noundef %.0.i.i.i.i7)
  %.pre.i8 = load i32, ptr %50, align 8
  br label %_ZN26GrowableArrayWithAllocatorIP13MemoryManager13GrowableArrayIS1_EE6appendERKS1_.exit

_ZN26GrowableArrayWithAllocatorIP13MemoryManager13GrowableArrayIS1_EE6appendERKS1_.exit: ; preds = %48, %55
  %65 = phi i32 [ %.pre.i8, %55 ], [ %51, %48 ]
  %66 = add nsw i32 %65, 1
  store i32 %66, ptr %50, align 8
  %67 = load ptr, ptr @_ZN13MemoryService19_code_cache_managerE, align 8
  %68 = getelementptr inbounds i8, ptr %50, i64 8
  %69 = load ptr, ptr %68, align 8
  %70 = sext i32 %65 to i64
  %71 = getelementptr inbounds ptr, ptr %69, i64 %70
  store ptr %67, ptr %71, align 8
  br label %72

72:                                               ; preds = %_ZN26GrowableArrayWithAllocatorIP13MemoryManager13GrowableArrayIS1_EE6appendERKS1_.exit, %_ZN26GrowableArrayWithAllocatorIP10MemoryPool13GrowableArrayIS1_EE6appendERKS1_.exit6
  %73 = phi ptr [ %67, %_ZN26GrowableArrayWithAllocatorIP13MemoryManager13GrowableArrayIS1_EE6appendERKS1_.exit ], [ %46, %_ZN26GrowableArrayWithAllocatorIP10MemoryPool13GrowableArrayIS1_EE6appendERKS1_.exit6 ]
  %74 = tail call noundef i32 @_ZN13MemoryManager8add_poolEP10MemoryPool(ptr noundef nonnull align 8 dereferenceable(113) %73, ptr noundef nonnull %3) #8
  ret void
}